target datalayout = "e-m:e-p270:32:32-p271:32:32-p272:64:64-i64:64-i128:128-f80:128-n8:16:32:64-S128"
target triple = "x86_64-unknown-linux-gnu"

%"struct.testing::internal::CodeLocation" = type <{ %"class.std::__cxx11::basic_string", i32, [4 x i8] }>
%"class.std::__cxx11::basic_string" = type { %"struct.std::__cxx11::basic_string<char>::_Alloc_hider", i64, %union.anon }
%"struct.std::__cxx11::basic_string<char>::_Alloc_hider" = type { ptr }
%union.anon = type { i64, [8 x i8] }
%"struct.testing::internal::ParameterizedTestSuiteInfo<absl::cord_internal::(anonymous namespace)::CordRepBtreeDualTest>::TestInfo" = type { %"class.std::__cxx11::basic_string", %"class.std::__cxx11::basic_string", %"class.std::unique_ptr.482", %"struct.testing::internal::CodeLocation" }
%"class.std::unique_ptr.482" = type { %"struct.std::__uniq_ptr_data.483" }
%"struct.std::__uniq_ptr_data.483" = type { %"class.std::__uniq_ptr_impl.484" }
%"class.std::__uniq_ptr_impl.484" = type { %"class.std::tuple.485" }
%"class.std::tuple.485" = type { %"struct.std::_Tuple_impl.486" }
%"struct.std::_Tuple_impl.486" = type { %"struct.std::_Head_base.489" }
%"struct.std::_Head_base.489" = type { ptr }

; Function Attrs: mustprogress nounwind uwtable
define linkonce_odr dso_local noundef nonnull align 1 dereferenceable(1) ptr @_ZNSt10_Head_baseILm1ESt14default_deleteIN7testing8internal19TestMetaFactoryBaseISt5tupleIJbbEEEEELb1EE7_M_headERS8_(ptr noundef nonnull align 1 dereferenceable(1) %__b) #5 comdat align 2 {
entry:
  %__b.addr = alloca ptr, align 8
  store ptr %__b, ptr %__b.addr, align 8
  %0 = load ptr, ptr %__b.addr, align 8
  ret ptr %0
}

; Function Attrs: mustprogress nounwind uwtable
define linkonce_odr dso_local noundef nonnull align 1 dereferenceable(1) ptr @_ZNSt11_Tuple_implILm1EJSt14default_deleteIN7testing8internal19TestMetaFactoryBaseISt5tupleIJbbEEEEEEE7_M_headERS8_(ptr noundef nonnull align 1 dereferenceable(1) %__t) #5 comdat align 2 {
entry:
  %__t.addr = alloca ptr, align 8
  store ptr %__t, ptr %__t.addr, align 8
  %0 = load ptr, ptr %__t.addr, align 8
  %call = call noundef nonnull align 1 dereferenceable(1) ptr @_ZNSt10_Head_baseILm1ESt14default_deleteIN7testing8internal19TestMetaFactoryBaseISt5tupleIJbbEEEEELb1EE7_M_headERS8_(ptr noundef nonnull align 1 dereferenceable(1) %0) #3
  ret ptr %call
}

; Function Attrs: mustprogress nounwind uwtable
define linkonce_odr dso_local noundef nonnull align 8 dereferenceable(8) ptr @_ZNSt10_Head_baseILm0EPN7testing8internal19TestMetaFactoryBaseISt5tupleIJbbEEEELb0EE7_M_headERS7_(ptr noundef nonnull align 8 dereferenceable(8) %__b) #5 comdat align 2 {
entry:
  %__b.addr = alloca ptr, align 8
  store ptr %__b, ptr %__b.addr, align 8
  %0 = load ptr, ptr %__b.addr, align 8
  %_M_head_impl = getelementptr inbounds %"struct.std::_Head_base.489", ptr %0, i32 0, i32 0
  ret ptr %_M_head_impl
}

; Function Attrs: mustprogress nounwind uwtable
define linkonce_odr dso_local noundef nonnull align 1 dereferenceable(1) ptr @_ZSt12__get_helperILm1ESt14default_deleteIN7testing8internal19TestMetaFactoryBaseISt5tupleIJbbEEEEEJEERT0_RSt11_Tuple_implIXT_EJS8_DpT1_EE(ptr noundef nonnull align 1 dereferenceable(1) %__t) #5 comdat {
entry:
  %__t.addr = alloca ptr, align 8
  store ptr %__t, ptr %__t.addr, align 8
  %0 = load ptr, ptr %__t.addr, align 8
  %call = call noundef nonnull align 1 dereferenceable(1) ptr @_ZNSt11_Tuple_implILm1EJSt14default_deleteIN7testing8internal19TestMetaFactoryBaseISt5tupleIJbbEEEEEEE7_M_headERS8_(ptr noundef nonnull align 1 dereferenceable(1) %0) #3
  ret ptr %call
}

; Function Attrs: mustprogress nounwind uwtable
define linkonce_odr dso_local noundef nonnull align 8 dereferenceable(8) ptr @_ZNSt11_Tuple_implILm0EJPN7testing8internal19TestMetaFactoryBaseISt5tupleIJbbEEEESt14default_deleteIS5_EEE7_M_headERS9_(ptr noundef nonnull align 8 dereferenceable(8) %__t) #5 comdat align 2 {
entry:
  %__t.addr = alloca ptr, align 8
  store ptr %__t, ptr %__t.addr, align 8
  %0 = load ptr, ptr %__t.addr, align 8
  %call = call noundef nonnull align 8 dereferenceable(8) ptr @_ZNSt10_Head_baseILm0EPN7testing8internal19TestMetaFactoryBaseISt5tupleIJbbEEEELb0EE7_M_headERS7_(ptr noundef nonnull align 8 dereferenceable(8) %0) #3
  ret ptr %call
}

; Function Attrs: mustprogress nounwind uwtable
define linkonce_odr dso_local noundef nonnull align 1 dereferenceable(1) ptr @_ZSt3getILm1EJPN7testing8internal19TestMetaFactoryBaseISt5tupleIJbbEEEESt14default_deleteIS5_EEERNSt13tuple_elementIXT_ES3_IJDpT0_EEE4typeERSC_(ptr noundef nonnull align 8 dereferenceable(8) %__t) #5 comdat {
entry:
  %__t.addr = alloca ptr, align 8
  store ptr %__t, ptr %__t.addr, align 8
  %0 = load ptr, ptr %__t.addr, align 8
  %call = call noundef nonnull align 1 dereferenceable(1) ptr @_ZSt12__get_helperILm1ESt14default_deleteIN7testing8internal19TestMetaFactoryBaseISt5tupleIJbbEEEEEJEERT0_RSt11_Tuple_implIXT_EJS8_DpT1_EE(ptr noundef nonnull align 1 dereferenceable(1) %0) #3
  ret ptr %call
}

; Function Attrs: mustprogress nounwind uwtable
define linkonce_odr dso_local noundef nonnull align 8 dereferenceable(8) ptr @_ZSt12__get_helperILm0EPN7testing8internal19TestMetaFactoryBaseISt5tupleIJbbEEEEJSt14default_deleteIS5_EEERT0_RSt11_Tuple_implIXT_EJS9_DpT1_EE(ptr noundef nonnull align 8 dereferenceable(8) %__t) #5 comdat {
entry:
  %__t.addr = alloca ptr, align 8
  store ptr %__t, ptr %__t.addr, align 8
  %0 = load ptr, ptr %__t.addr, align 8
  %call = call noundef nonnull align 8 dereferenceable(8) ptr @_ZNSt11_Tuple_implILm0EJPN7testing8internal19TestMetaFactoryBaseISt5tupleIJbbEEEESt14default_deleteIS5_EEE7_M_headERS9_(ptr noundef nonnull align 8 dereferenceable(8) %0) #3
  ret ptr %call
}

; Function Attrs: mustprogress nounwind uwtable
define linkonce_odr dso_local noundef nonnull align 1 dereferenceable(1) ptr @_ZNSt15__uniq_ptr_implIN7testing8internal19TestMetaFactoryBaseISt5tupleIJbbEEEESt14default_deleteIS5_EE10_M_deleterEv(ptr noundef nonnull align 8 dereferenceable(8) %this) #5 comdat align 2 {
entry:
  %this.addr = alloca ptr, align 8
  store ptr %this, ptr %this.addr, align 8
  %this1 = load ptr, ptr %this.addr, align 8
  %_M_t = getelementptr inbounds %"class.std::__uniq_ptr_impl.484", ptr %this1, i32 0, i32 0
  %call = call noundef nonnull align 1 dereferenceable(1) ptr @_ZSt3getILm1EJPN7testing8internal19TestMetaFactoryBaseISt5tupleIJbbEEEESt14default_deleteIS5_EEERNSt13tuple_elementIXT_ES3_IJDpT0_EEE4typeERSC_(ptr noundef nonnull align 8 dereferenceable(8) %_M_t) #3
  ret ptr %call
}

; Function Attrs: mustprogress nounwind uwtable
define linkonce_odr dso_local noundef nonnull align 8 dereferenceable(8) ptr @_ZSt3getILm0EJPN7testing8internal19TestMetaFactoryBaseISt5tupleIJbbEEEESt14default_deleteIS5_EEERNSt13tuple_elementIXT_ES3_IJDpT0_EEE4typeERSC_(ptr noundef nonnull align 8 dereferenceable(8) %__t) #5 comdat {
entry:
  %__t.addr = alloca ptr, align 8
  store ptr %__t, ptr %__t.addr, align 8
  %0 = load ptr, ptr %__t.addr, align 8
  %call = call noundef nonnull align 8 dereferenceable(8) ptr @_ZSt12__get_helperILm0EPN7testing8internal19TestMetaFactoryBaseISt5tupleIJbbEEEEJSt14default_deleteIS5_EEERT0_RSt11_Tuple_implIXT_EJS9_DpT1_EE(ptr noundef nonnull align 8 dereferenceable(8) %0) #3
  ret ptr %call
}

; Function Attrs: noreturn nounwind uwtable
define linkonce_odr hidden void @__clang_call_terminate(ptr noundef %0) #10 comdat {
  %2 = call ptr @__cxa_begin_catch(ptr %0) #3
  call void @_ZSt9terminatev() #23
  unreachable
}

; Function Attrs: mustprogress nounwind uwtable
define linkonce_odr dso_local void @_ZNKSt14default_deleteIN7testing8internal19TestMetaFactoryBaseISt5tupleIJbbEEEEEclEPS5_(ptr noundef nonnull align 1 dereferenceable(1) %this, ptr noundef %__ptr) #5 comdat align 2 {
entry:
  %this.addr = alloca ptr, align 8
  %__ptr.addr = alloca ptr, align 8
  store ptr %this, ptr %this.addr, align 8
  store ptr %__ptr, ptr %__ptr.addr, align 8
  %0 = load ptr, ptr %__ptr.addr, align 8
  %isnull = icmp eq ptr %0, null
  br i1 %isnull, label %delete.end, label %delete.notnull

delete.notnull:                                   ; preds = %entry
  %vtable = load ptr, ptr %0, align 8
  %vfn = getelementptr inbounds ptr, ptr %vtable, i64 1
  %1 = load ptr, ptr %vfn, align 8
  call void %1(ptr noundef nonnull align 8 dereferenceable(8) %0) #3
  br label %delete.end

delete.end:                                       ; preds = %delete.notnull, %entry
  ret void
}

; Function Attrs: mustprogress nounwind uwtable
define linkonce_odr dso_local noundef nonnull align 1 dereferenceable(1) ptr @_ZNSt10unique_ptrIN7testing8internal19TestMetaFactoryBaseISt5tupleIJbbEEEESt14default_deleteIS5_EE11get_deleterEv(ptr noundef nonnull align 8 dereferenceable(8) %this) #5 comdat align 2 {
entry:
  %this.addr = alloca ptr, align 8
  store ptr %this, ptr %this.addr, align 8
  %this1 = load ptr, ptr %this.addr, align 8
  %_M_t = getelementptr inbounds %"class.std::unique_ptr.482", ptr %this1, i32 0, i32 0
  %call = call noundef nonnull align 1 dereferenceable(1) ptr @_ZNSt15__uniq_ptr_implIN7testing8internal19TestMetaFactoryBaseISt5tupleIJbbEEEESt14default_deleteIS5_EE10_M_deleterEv(ptr noundef nonnull align 8 dereferenceable(8) %_M_t) #3
  ret ptr %call
}

; Function Attrs: mustprogress nounwind uwtable
define linkonce_odr dso_local noundef nonnull align 8 dereferenceable(8) ptr @_ZNSt15__uniq_ptr_implIN7testing8internal19TestMetaFactoryBaseISt5tupleIJbbEEEESt14default_deleteIS5_EE6_M_ptrEv(ptr noundef nonnull align 8 dereferenceable(8) %this) #5 comdat align 2 {
entry:
  %this.addr = alloca ptr, align 8
  store ptr %this, ptr %this.addr, align 8
  %this1 = load ptr, ptr %this.addr, align 8
  %_M_t = getelementptr inbounds %"class.std::__uniq_ptr_impl.484", ptr %this1, i32 0, i32 0
  %call = call noundef nonnull align 8 dereferenceable(8) ptr @_ZSt3getILm0EJPN7testing8internal19TestMetaFactoryBaseISt5tupleIJbbEEEESt14default_deleteIS5_EEERNSt13tuple_elementIXT_ES3_IJDpT0_EEE4typeERSC_(ptr noundef nonnull align 8 dereferenceable(8) %_M_t) #3
  ret ptr %call
}

; Function Attrs: mustprogress nounwind uwtable
define linkonce_odr dso_local void @_ZNSt10unique_ptrIN7testing8internal19TestMetaFactoryBaseISt5tupleIJbbEEEESt14default_deleteIS5_EED2Ev(ptr noundef nonnull align 8 dereferenceable(8) %this) unnamed_addr #5 comdat align 2 personality ptr @__gxx_personality_v0 {
entry:
  %this.addr = alloca ptr, align 8
  %__ptr = alloca ptr, align 8
  store ptr %this, ptr %this.addr, align 8
  %this1 = load ptr, ptr %this.addr, align 8
  %_M_t = getelementptr inbounds %"class.std::unique_ptr.482", ptr %this1, i32 0, i32 0
  %call = call noundef nonnull align 8 dereferenceable(8) ptr @_ZNSt15__uniq_ptr_implIN7testing8internal19TestMetaFactoryBaseISt5tupleIJbbEEEESt14default_deleteIS5_EE6_M_ptrEv(ptr noundef nonnull align 8 dereferenceable(8) %_M_t) #3
  store ptr %call, ptr %__ptr, align 8
  %0 = load ptr, ptr %__ptr, align 8
  %1 = load ptr, ptr %0, align 8
  %cmp = icmp ne ptr %1, null
  br i1 %cmp, label %if.then, label %if.end

if.then:                                          ; preds = %entry
  %call2 = call noundef nonnull align 1 dereferenceable(1) ptr @_ZNSt10unique_ptrIN7testing8internal19TestMetaFactoryBaseISt5tupleIJbbEEEESt14default_deleteIS5_EE11get_deleterEv(ptr noundef nonnull align 8 dereferenceable(8) %this1) #3
  %2 = load ptr, ptr %__ptr, align 8
  %3 = load ptr, ptr %2, align 8
  invoke void @_ZNKSt14default_deleteIN7testing8internal19TestMetaFactoryBaseISt5tupleIJbbEEEEEclEPS5_(ptr noundef nonnull align 1 dereferenceable(1) %call2, ptr noundef %3)
          to label %invoke.cont unwind label %terminate.lpad

invoke.cont:                                      ; preds = %if.then
  br label %if.end

if.end:                                           ; preds = %invoke.cont, %entry
  %4 = load ptr, ptr %__ptr, align 8
  store ptr null, ptr %4, align 8
  ret void

terminate.lpad:                                   ; preds = %if.then
  %5 = landingpad { ptr, i32 }
          catch ptr null
  %6 = extractvalue { ptr, i32 } %5, 0
  call void @__clang_call_terminate(ptr %6) #23
  unreachable
}

; Function Attrs: mustprogress nounwind uwtable
define linkonce_odr dso_local void @_ZN7testing8internal12CodeLocationD2Ev(ptr noundef nonnull align 8 dereferenceable(36) %this) unnamed_addr #5 comdat align 2 {
entry:
  %this.addr = alloca ptr, align 8
  store ptr %this, ptr %this.addr, align 8
  %this1 = load ptr, ptr %this.addr, align 8
  %file = getelementptr inbounds %"struct.testing::internal::CodeLocation", ptr %this1, i32 0, i32 0
  call void @_ZNSt7__cxx1112basic_stringIcSt11char_traitsIcESaIcEED1Ev(ptr noundef nonnull align 8 dereferenceable(32) %file) #3
  ret void
}

; Function Attrs: mustprogress nounwind uwtable
define internal void @_ZN7testing8internal26ParameterizedTestSuiteInfoIN4absl13cord_internal12_GLOBAL__N_120CordRepBtreeDualTestEE8TestInfoD2Ev(ptr noundef nonnull align 8 dereferenceable(112) %this) unnamed_addr #5 align 2 {
entry:
  %this.addr = alloca ptr, align 8
  store ptr %this, ptr %this.addr, align 8
  %this1 = load ptr, ptr %this.addr, align 8
  %code_location = getelementptr inbounds %"struct.testing::internal::ParameterizedTestSuiteInfo<absl::cord_internal::(anonymous namespace)::CordRepBtreeDualTest>::TestInfo", ptr %this1, i32 0, i32 3
  call void @_ZN7testing8internal12CodeLocationD2Ev(ptr noundef nonnull align 8 dereferenceable(36) %code_location) #3
  %test_meta_factory = getelementptr inbounds %"struct.testing::internal::ParameterizedTestSuiteInfo<absl::cord_internal::(anonymous namespace)::CordRepBtreeDualTest>::TestInfo", ptr %this1, i32 0, i32 2
  call void @_ZNSt10unique_ptrIN7testing8internal19TestMetaFactoryBaseISt5tupleIJbbEEEESt14default_deleteIS5_EED2Ev(ptr noundef nonnull align 8 dereferenceable(8) %test_meta_factory) #3
  %test_base_name = getelementptr inbounds %"struct.testing::internal::ParameterizedTestSuiteInfo<absl::cord_internal::(anonymous namespace)::CordRepBtreeDualTest>::TestInfo", ptr %this1, i32 0, i32 1
  call void @_ZNSt7__cxx1112basic_stringIcSt11char_traitsIcESaIcEED1Ev(ptr noundef nonnull align 8 dereferenceable(32) %test_base_name) #3
  %test_suite_base_name = getelementptr inbounds %"struct.testing::internal::ParameterizedTestSuiteInfo<absl::cord_internal::(anonymous namespace)::CordRepBtreeDualTest>::TestInfo", ptr %this1, i32 0, i32 0
  call void @_ZNSt7__cxx1112basic_stringIcSt11char_traitsIcESaIcEED1Ev(ptr noundef nonnull align 8 dereferenceable(32) %test_suite_base_name) #3
  ret void
}